target datalayout = "e-m:e-p270:32:32-p271:32:32-p272:64:64-i64:64-i128:128-f80:128-n8:16:32:64-S128"
target triple = "x86_64-pc-linux-gnu"

%struct.ssl_st = type { i32, ptr, ptr, ptr, %struct.CRYPTO_REF_COUNT, ptr, %struct.crypto_ex_data_st }
%struct.CRYPTO_REF_COUNT = type { i32 }
%struct.crypto_ex_data_st = type { ptr, ptr }
%struct.ssl_connection_st = type { %struct.ssl_st, ptr, i32, ptr, ptr, ptr, i32, ptr, i32, i32, i32, i32, %struct.OSSL_TIME, %struct.OSSL_TIME, %struct.ossl_statem_st, i32, ptr, ptr, i64, i64, i64, %struct.ossl_quic_tls_callbacks_st, ptr, ptr, %struct.anon, ptr, ptr, ptr, i32, ptr, %struct.ssl_dane_st, ptr, ptr, ptr, ptr, i32, [64 x i8], [64 x i8], [64 x i8], [64 x i8], [64 x i8], [64 x i8], [64 x i8], [64 x i8], [64 x i8], [64 x i8], [64 x i8], [64 x i8], ptr, [64 x i8], i64, i32, i64, [32 x i8], ptr, ptr, ptr, i64, ptr, [32 x i8], i64, i32, ptr, ptr, i32, i32, ptr, ptr, ptr, ptr, ptr, i64, ptr, ptr, i64, i32, i32, i32, i64, i32, i32, i64, i64, i64, %struct.anon.1, ptr, i32, ptr, ptr, ptr, i32, ptr, ptr, ptr, i32, i32, i32, i32, ptr, i64, i32, ptr, %struct.srp_ctx_st, ptr, %struct.record_layer_st, ptr, ptr, ptr, ptr, i64, i32, i32, i32, i64, i64, i64, ptr, ptr, ptr, ptr, ptr, i64, ptr, i64, ptr, i64 }
%struct.OSSL_TIME = type { i64 }
%struct.ossl_statem_st = type { i32, i32, i32, i32, i32, i32, i32, i32, i32, i32, i32, i32, i32, ptr, ptr, ptr, i8 }
%struct.ossl_quic_tls_callbacks_st = type { ptr, ptr, ptr, ptr, ptr, ptr }
%struct.anon = type { i64, [32 x i8], [32 x i8], ptr, ptr, i32, i32, i32, i32, [2 x i8], i32, i32, i32, i32, %struct.anon.0, [64 x i8], i64, [64 x i8], i64, i32, i32, ptr, i64, ptr, i64, i32, i8, i8, i16, ptr, i16 }
%struct.anon.0 = type { [128 x i8], i64, [128 x i8], i64, i64, i32, ptr, ptr, [4 x ptr], [4 x i16], i64, i32, ptr, i64, ptr, i64, ptr, ptr, ptr, i32, i64, ptr, i32, ptr, i64, ptr, i64, ptr, i64, ptr, ptr, ptr, ptr, i64, i64, ptr, ptr, i32, i32, i32, i32 }
%struct.ssl_dane_st = type { ptr, ptr, ptr, ptr, ptr, i32, i32, i32, i64 }
%struct.anon.1 = type { [29 x i8], ptr, ptr, ptr, i32, ptr, i16, i32, %struct.anon.2, i32, i32, i64, ptr, i64, ptr, i64, ptr, i64, ptr, i64, ptr, i64, ptr, ptr, ptr, ptr, ptr, ptr, ptr, i64, ptr, i64, i32, i32, i32, i32, ptr, i64, i32, i8, i32, [4 x i32], i32, i8, i8, i8, i8 }
%struct.anon.2 = type { ptr, ptr, ptr, i64 }
%struct.srp_ctx_st = type { ptr, ptr, ptr, ptr, ptr, ptr, ptr, ptr, ptr, ptr, ptr, ptr, ptr, ptr, i32, i64 }
%struct.record_layer_st = type { ptr, ptr, ptr, ptr, ptr, ptr, ptr, ptr, i64, i32, i64, [4 x i8], i64, i64, i8, ptr, i32, ptr, ptr, ptr, i64, i64, i64, i64, [32 x %struct.tls_record_st] }
%struct.tls_record_st = type { ptr, i32, i8, ptr, ptr, i64, i64, i16, [8 x i8] }

@.str = private unnamed_addr constant [24 x i8] c"../openssl/ssl/d1_msg.c\00", align 1
@__func__.dtls1_write_app_data_bytes = private unnamed_addr constant [27 x i8] c"dtls1_write_app_data_bytes\00", align 1

; Function Attrs: nounwind uwtable
define i32 @dtls1_write_app_data_bytes(ptr noundef %0, i8 noundef zeroext %1, ptr noundef %2, i64 noundef %3, ptr noundef %4) #0 {
  %6 = alloca i32, align 4
  %7 = alloca ptr, align 8
  %8 = alloca i8, align 1
  %9 = alloca ptr, align 8
  %10 = alloca i64, align 8
  %11 = alloca ptr, align 8
  %12 = alloca i32, align 4
  %13 = alloca ptr, align 8
  %14 = alloca i32, align 4
  store ptr %0, ptr %7, align 8, !tbaa !3
  store i8 %1, ptr %8, align 1, !tbaa !8
  store ptr %2, ptr %9, align 8, !tbaa !9
  store i64 %3, ptr %10, align 8, !tbaa !10
  store ptr %4, ptr %11, align 8, !tbaa !12
  call void @llvm.lifetime.start.p0(i64 4, ptr %12) #4
  call void @llvm.lifetime.start.p0(i64 8, ptr %13) #4
  %15 = load ptr, ptr %7, align 8, !tbaa !3
  %16 = icmp eq ptr %15, null
  br i1 %16, label %17, label %18

17:                                               ; preds = %5
  br label %28

18:                                               ; preds = %5
  %19 = load ptr, ptr %7, align 8, !tbaa !3
  %20 = getelementptr inbounds nuw %struct.ssl_st, ptr %19, i32 0, i32 0
  %21 = load i32, ptr %20, align 8, !tbaa !14
  %22 = icmp eq i32 %21, 0
  br i1 %22, label %23, label %25

23:                                               ; preds = %18
  %24 = load ptr, ptr %7, align 8, !tbaa !3
  br label %26

25:                                               ; preds = %18
  br label %26

26:                                               ; preds = %25, %23
  %27 = phi ptr [ %24, %23 ], [ null, %25 ]
  br label %28

28:                                               ; preds = %26, %17
  %29 = phi ptr [ null, %17 ], [ %27, %26 ]
  store ptr %29, ptr %13, align 8, !tbaa !23
  %30 = load ptr, ptr %13, align 8, !tbaa !23
  %31 = icmp eq ptr %30, null
  br i1 %31, label %32, label %33

32:                                               ; preds = %28
  store i32 -1, ptr %6, align 4
  store i32 1, ptr %14, align 4
  br label %67

33:                                               ; preds = %28
  %34 = load ptr, ptr %7, align 8, !tbaa !3
  %35 = call i32 @SSL_in_init(ptr noundef %34)
  %36 = icmp ne i32 %35, 0
  br i1 %36, label %37, label %56

37:                                               ; preds = %33
  %38 = load ptr, ptr %13, align 8, !tbaa !23
  %39 = call i32 @ossl_statem_get_in_handshake(ptr noundef %38)
  %40 = icmp ne i32 %39, 0
  br i1 %40, label %56, label %41

41:                                               ; preds = %37
  %42 = load ptr, ptr %13, align 8, !tbaa !23
  %43 = getelementptr inbounds nuw %struct.ssl_connection_st, ptr %42, i32 0, i32 7
  %44 = load ptr, ptr %43, align 8, !tbaa !25
  %45 = load ptr, ptr %7, align 8, !tbaa !3
  %46 = call i32 %44(ptr noundef %45)
  store i32 %46, ptr %12, align 4, !tbaa !76
  %47 = load i32, ptr %12, align 4, !tbaa !76
  %48 = icmp slt i32 %47, 0
  br i1 %48, label %49, label %51

49:                                               ; preds = %41
  %50 = load i32, ptr %12, align 4, !tbaa !76
  store i32 %50, ptr %6, align 4
  store i32 1, ptr %14, align 4
  br label %67

51:                                               ; preds = %41
  %52 = load i32, ptr %12, align 4, !tbaa !76
  %53 = icmp eq i32 %52, 0
  br i1 %53, label %54, label %55

54:                                               ; preds = %51
  call void @ERR_new()
  call void @ERR_set_debug(ptr noundef @.str, i32 noundef 27, ptr noundef @__func__.dtls1_write_app_data_bytes)
  call void (i32, i32, ptr, ...) @ERR_set_error(i32 noundef 20, i32 noundef 229, ptr noundef null)
  store i32 -1, ptr %6, align 4
  store i32 1, ptr %14, align 4
  br label %67

55:                                               ; preds = %51
  br label %56

56:                                               ; preds = %55, %37, %33
  %57 = load i64, ptr %10, align 8, !tbaa !10
  %58 = icmp ugt i64 %57, 16384
  br i1 %58, label %59, label %60

59:                                               ; preds = %56
  call void @ERR_new()
  call void @ERR_set_debug(ptr noundef @.str, i32 noundef 33, ptr noundef @__func__.dtls1_write_app_data_bytes)
  call void (i32, i32, ptr, ...) @ERR_set_error(i32 noundef 20, i32 noundef 334, ptr noundef null)
  store i32 -1, ptr %6, align 4
  store i32 1, ptr %14, align 4
  br label %67

60:                                               ; preds = %56
  %61 = load ptr, ptr %13, align 8, !tbaa !23
  %62 = load i8, ptr %8, align 1, !tbaa !8
  %63 = load ptr, ptr %9, align 8, !tbaa !9
  %64 = load i64, ptr %10, align 8, !tbaa !10
  %65 = load ptr, ptr %11, align 8, !tbaa !12
  %66 = call i32 @dtls1_write_bytes(ptr noundef %61, i8 noundef zeroext %62, ptr noundef %63, i64 noundef %64, ptr noundef %65)
  store i32 %66, ptr %6, align 4
  store i32 1, ptr %14, align 4
  br label %67

67:                                               ; preds = %60, %59, %54, %49, %32
  call void @llvm.lifetime.end.p0(i64 8, ptr %13) #4
  call void @llvm.lifetime.end.p0(i64 4, ptr %12) #4
  %68 = load i32, ptr %6, align 4
  ret i32 %68
}