; Function Attrs: nounwind uwtable
define i32 @dtls1_write_app_data_bytes(ptr noundef %0, i8 noundef zeroext %1, ptr noundef %2, i64 noundef %3, ptr noundef %4) local_unnamed_addr #0 {
  %6 = icmp eq ptr %0, null
  br i1 %6, label %.thread, label %7

7:                                                ; preds = %5
  %8 = load i32, ptr %0, align 8, !tbaa !3
  %9 = icmp eq i32 %8, 0
  br i1 %9, label %10, label %.thread

10:                                               ; preds = %7
  %11 = tail call i32 @SSL_in_init(ptr noundef nonnull %0) #3
  %.not = icmp eq i32 %11, 0
  br i1 %.not, label %22, label %12

12:                                               ; preds = %10
  %13 = tail call i32 @ossl_statem_get_in_handshake(ptr noundef nonnull %0) #3
  %.not21 = icmp eq i32 %13, 0
  br i1 %.not21, label %14, label %22

14:                                               ; preds = %12
  %15 = getelementptr inbounds nuw i8, ptr %0, i64 112
  %16 = load ptr, ptr %15, align 8, !tbaa !15
  %17 = tail call i32 %16(ptr noundef nonnull %0) #3
  %18 = icmp slt i32 %17, 0
  br i1 %18, label %.thread, label %19

19:                                               ; preds = %14
  %20 = icmp eq i32 %17, 0
  br i1 %20, label %21, label %22

21:                                               ; preds = %19
  tail call void @ERR_new() #3
  tail call void @ERR_set_debug(ptr noundef nonnull @.str, i32 noundef 27, ptr noundef nonnull @__func__.dtls1_write_app_data_bytes) #3
  tail call void (i32, i32, ptr, ...) @ERR_set_error(i32 noundef 20, i32 noundef 229, ptr noundef null) #3
  br label %.thread

22:                                               ; preds = %19, %12, %10
  %23 = icmp ugt i64 %3, 16384
  br i1 %23, label %24, label %25

24:                                               ; preds = %22
  tail call void @ERR_new() #3
  tail call void @ERR_set_debug(ptr noundef nonnull @.str, i32 noundef 33, ptr noundef nonnull @__func__.dtls1_write_app_data_bytes) #3
  tail call void (i32, i32, ptr, ...) @ERR_set_error(i32 noundef 20, i32 noundef 334, ptr noundef null) #3
  br label %.thread

25:                                               ; preds = %22
  %26 = tail call i32 @dtls1_write_bytes(ptr noundef nonnull %0, i8 noundef zeroext %1, ptr noundef %2, i64 noundef %3, ptr noundef %4) #3
  br label %.thread

.thread:                                          ; preds = %5, %7, %14, %25, %24, %21
  %.0 = phi i32 [ -1, %24 ], [ %26, %25 ], [ -1, %21 ], [ %17, %14 ], [ -1, %7 ], [ -1, %5 ]
  ret i32 %.0
}